; Function Attrs: mustprogress uwtable
define hidden noundef ptr @_Z16mk_datatype_declRN8datatype4utilERK6symboljPKP4sortjPKPNS_11constructorE(ptr noundef nonnull align 8 captures(none) dereferenceable(24) %0, ptr noundef nonnull readonly align 8 captures(none) dereferenceable(8) %1, i32 noundef %2, ptr noundef readonly captures(none) %3, i32 noundef %4, ptr noundef readonly captures(none) %5) local_unnamed_addr #4 {
  %7 = alloca %class.symbol, align 8
  %8 = getelementptr inbounds nuw i8, ptr %0, i64 16
  %9 = load ptr, ptr %8, align 8, !tbaa !254
  %.not.i = icmp eq ptr %9, null
  br i1 %.not.i, label %10, label %_ZNK8datatype4util6pluginEv.exit

10:                                               ; preds = %6
  %11 = load ptr, ptr %0, align 8, !tbaa !50
  %12 = getelementptr inbounds nuw i8, ptr %0, i64 8
  %13 = load i32, ptr %12, align 8, !tbaa !47
  %14 = icmp eq i32 %13, -1
  br i1 %14, label %15, label %_ZNK8datatype4util3fidEv.exit.i

15:                                               ; preds = %10
  call void @llvm.lifetime.start.p0(i64 8, ptr nonnull %7) #28
  call void @_ZN6symbolC1EPKc(ptr noundef nonnull align 8 dereferenceable(8) %7, ptr noundef nonnull @.str.34)
  %16 = getelementptr inbounds nuw i8, ptr %11, i64 560
  %17 = call noundef i32 @_ZNK14family_manager13get_family_idERK6symbol(ptr noundef nonnull align 8 dereferenceable(56) %16, ptr noundef nonnull align 8 dereferenceable(8) %7)
  call void @llvm.lifetime.end.p0(i64 8, ptr nonnull %7) #28
  store i32 %17, ptr %12, align 8, !tbaa !47
  br label %_ZNK8datatype4util3fidEv.exit.i

_ZNK8datatype4util3fidEv.exit.i:                  ; preds = %15, %10
  %18 = phi i32 [ %17, %15 ], [ %13, %10 ]
  %19 = call noundef ptr @_ZNK11ast_manager10get_pluginEi(ptr noundef nonnull align 8 dereferenceable(976) %11, i32 noundef %18)
  %20 = icmp eq ptr %19, null
  br i1 %20, label %23, label %21

21:                                               ; preds = %_ZNK8datatype4util3fidEv.exit.i
  %22 = call ptr @__dynamic_cast(ptr nonnull %19, ptr nonnull @_ZTI11decl_plugin, ptr nonnull @_ZTIN8datatype4decl6pluginE, i64 0) #28
  br label %23

23:                                               ; preds = %21, %_ZNK8datatype4util3fidEv.exit.i
  %24 = phi ptr [ %22, %21 ], [ null, %_ZNK8datatype4util3fidEv.exit.i ]
  store ptr %24, ptr %8, align 8, !tbaa !254
  br label %_ZNK8datatype4util6pluginEv.exit

_ZNK8datatype4util6pluginEv.exit:                 ; preds = %6, %23
  %25 = phi ptr [ %24, %23 ], [ %9, %6 ]
  %26 = call noundef ptr @_ZN8datatype4decl6plugin2mkERK6symboljPKP4sort(ptr noundef nonnull align 8 dereferenceable(360) %25, ptr noundef nonnull align 8 dereferenceable(8) %1, i32 noundef %2, ptr noundef %3)
  %.not = icmp eq i32 %4, 0
  br i1 %.not, label %._crit_edge, label %.lr.ph

.lr.ph:                                           ; preds = %_ZNK8datatype4util6pluginEv.exit
  %27 = getelementptr inbounds nuw i8, ptr %26, i64 72
  %wide.trip.count = zext i32 %4 to i64
  %.pre = load ptr, ptr %27, align 8, !tbaa !97
  br label %28

._crit_edge:                                      ; preds = %_ZN8datatype3def3addEPNS_11constructorE.exit, %_ZNK8datatype4util6pluginEv.exit
  ret ptr %26

28:                                               ; preds = %.lr.ph, %_ZN8datatype3def3addEPNS_11constructorE.exit
  %29 = phi ptr [ %.pre, %.lr.ph ], [ %40, %_ZN8datatype3def3addEPNS_11constructorE.exit ]
  %indvars.iv = phi i64 [ 0, %.lr.ph ], [ %indvars.iv.next, %_ZN8datatype3def3addEPNS_11constructorE.exit ]
  %30 = getelementptr inbounds nuw ptr, ptr %5, i64 %indvars.iv
  %31 = load ptr, ptr %30, align 8, !tbaa !98
  %32 = icmp eq ptr %29, null
  br i1 %32, label %39, label %33

33:                                               ; preds = %28
  %34 = getelementptr inbounds i8, ptr %29, i64 -4
  %35 = load i32, ptr %34, align 4, !tbaa !25
  %36 = getelementptr inbounds i8, ptr %29, i64 -8
  %37 = load i32, ptr %36, align 4, !tbaa !25
  %38 = icmp eq i32 %35, %37
  br i1 %38, label %39, label %_ZN8datatype3def3addEPNS_11constructorE.exit

39:                                               ; preds = %33, %28
  call void @_ZN6vectorIPN8datatype11constructorELb0EjE13expand_vectorEv(ptr noundef nonnull align 8 dereferenceable(8) %27)
  %.pre.i.i = load ptr, ptr %27, align 8, !tbaa !97
  %.phi.trans.insert.i.i = getelementptr inbounds i8, ptr %.pre.i.i, i64 -4
  %.pre2.i.i = load i32, ptr %.phi.trans.insert.i.i, align 4, !tbaa !25
  br label %_ZN8datatype3def3addEPNS_11constructorE.exit

_ZN8datatype3def3addEPNS_11constructorE.exit:     ; preds = %33, %39
  %40 = phi ptr [ %.pre.i.i, %39 ], [ %29, %33 ]
  %41 = phi i32 [ %.pre2.i.i, %39 ], [ %35, %33 ]
  %42 = getelementptr inbounds i8, ptr %40, i64 -4
  %43 = zext i32 %41 to i64
  %44 = getelementptr inbounds nuw ptr, ptr %40, i64 %43
  store ptr %31, ptr %44, align 8, !tbaa !98
  %45 = add i32 %41, 1
  store i32 %45, ptr %42, align 4, !tbaa !25
  %46 = getelementptr inbounds nuw i8, ptr %31, i64 24
  store ptr %26, ptr %46, align 8, !tbaa !27
  %indvars.iv.next = add nuw nsw i64 %indvars.iv, 1
  %exitcond.not = icmp eq i64 %indvars.iv.next, %wide.trip.count
  br i1 %exitcond.not, label %._crit_edge, label %28, !llvm.loop !538
}